; Function Attrs: nounwind uwtable
define dso_local range(i32 -1, 1) i32 @PyDict_ClearWatcher(i32 noundef %0) local_unnamed_addr #0 {
  %or.cond.i = icmp ugt i32 %0, 7
  br i1 %or.cond.i, label %validate_watcher_id.exit, label %2

2:                                                ; preds = %1
  %3 = tail call align 8 ptr @llvm.threadlocal.address.p0(ptr align 8 @_Py_tss_tstate)
  %4 = load ptr, ptr %3, align 8, !tbaa !4
  %5 = getelementptr inbounds nuw i8, ptr %4, i64 16
  %6 = load ptr, ptr %5, align 8, !tbaa !9
  %7 = getelementptr inbounds nuw i8, ptr %6, i64 79672
  %8 = zext nneg i32 %0 to i64
  %9 = getelementptr [8 x ptr], ptr %7, i64 0, i64 %8
  %10 = load ptr, ptr %9, align 8, !tbaa !67
  %.not.i = icmp eq ptr %10, null
  br i1 %.not.i, label %validate_watcher_id.exit, label %13

validate_watcher_id.exit:                         ; preds = %1, %2
  %.str.86.sink.i = phi ptr [ @.str.85, %1 ], [ @.str.86, %2 ]
  %11 = load ptr, ptr @PyExc_ValueError, align 8, !tbaa !64
  %12 = tail call ptr (ptr, ptr, ...) @PyErr_Format(ptr noundef %11, ptr noundef nonnull %.str.86.sink.i, i32 noundef %0) #23
  br label %14

13:                                               ; preds = %2
  store ptr null, ptr %9, align 8, !tbaa !67
  br label %14

14:                                               ; preds = %validate_watcher_id.exit, %13
  %.0 = phi i32 [ 0, %13 ], [ -1, %validate_watcher_id.exit ]
  ret i32 %.0
}